; Function Attrs: nounwind uwtable
define ptr @l___private_Std_Tactic_BVDecide_LRAT_Internal_LRATCheckerSound_0__Std_Tactic_BVDecide_LRAT_Internal_WellFormedAction_match__1_splitter___rarg(ptr noundef %0, ptr noundef %1, ptr noundef %2) #0 {
  %4 = ptrtoint ptr %0 to i64
  %5 = and i64 %4, 1
  %.not.i35 = icmp eq i64 %5, 0
  br i1 %.not.i35, label %9, label %6

6:                                                ; preds = %3
  %7 = lshr i64 %4, 1
  %8 = trunc i64 %7 to i32
  br label %lean_obj_tag.exit

9:                                                ; preds = %3
  %10 = getelementptr i8, ptr %0, i64 4
  %.val.i = load i32, ptr %10, align 4
  %11 = lshr i32 %.val.i, 24
  br label %lean_obj_tag.exit

lean_obj_tag.exit:                                ; preds = %6, %9
  %.0.i = phi i32 [ %8, %6 ], [ %11, %9 ]
  %12 = icmp eq i32 %.0.i, 2
  br i1 %12, label %13, label %81

13:                                               ; preds = %lean_obj_tag.exit
  %14 = ptrtoint ptr %2 to i64
  %15 = and i64 %14, 1
  %.not50 = icmp eq i64 %15, 0
  br i1 %.not50, label %16, label %lean_dec.exit26

16:                                               ; preds = %13
  %17 = load i32, ptr %2, align 4, !tbaa !4
  %18 = icmp sgt i32 %17, 1
  br i1 %18, label %19, label %21, !prof !9

19:                                               ; preds = %16
  %20 = add nsw i32 %17, -1
  store i32 %20, ptr %2, align 4, !tbaa !4
  br label %lean_dec.exit26

21:                                               ; preds = %16
  %.not.i = icmp eq i32 %17, 0
  br i1 %.not.i, label %lean_dec.exit26, label %22

22:                                               ; preds = %21
  tail call void @lean_dec_ref_cold(ptr noundef nonnull %2) #3
  br label %lean_dec.exit26

lean_dec.exit26:                                  ; preds = %22, %21, %19, %13
  %23 = getelementptr inbounds nuw i8, ptr %0, i64 8
  %24 = load ptr, ptr %23, align 8, !tbaa !10
  %25 = ptrtoint ptr %24 to i64
  %26 = and i64 %25, 1
  %.not51 = icmp eq i64 %26, 0
  br i1 %.not51, label %27, label %lean_inc.exit30

27:                                               ; preds = %lean_dec.exit26
  %.val.i36 = load i32, ptr %24, align 4, !tbaa !4
  %28 = icmp sgt i32 %.val.i36, 0
  br i1 %28, label %29, label %31, !prof !9

29:                                               ; preds = %27
  %30 = add nuw i32 %.val.i36, 1
  store i32 %30, ptr %24, align 4, !tbaa !4
  br label %lean_inc.exit30

31:                                               ; preds = %27
  %.not.i37 = icmp eq i32 %.val.i36, 0
  br i1 %.not.i37, label %lean_inc.exit30, label %32

32:                                               ; preds = %31
  tail call void @lean_inc_ref_cold(ptr noundef nonnull %24) #3
  br label %lean_inc.exit30

lean_inc.exit30:                                  ; preds = %32, %31, %29, %lean_dec.exit26
  %33 = getelementptr inbounds nuw i8, ptr %0, i64 16
  %34 = load ptr, ptr %33, align 8, !tbaa !10
  %35 = ptrtoint ptr %34 to i64
  %36 = and i64 %35, 1
  %.not52 = icmp eq i64 %36, 0
  br i1 %.not52, label %37, label %lean_inc.exit29

37:                                               ; preds = %lean_inc.exit30
  %.val.i38 = load i32, ptr %34, align 4, !tbaa !4
  %38 = icmp sgt i32 %.val.i38, 0
  br i1 %38, label %39, label %41, !prof !9

39:                                               ; preds = %37
  %40 = add nuw i32 %.val.i38, 1
  store i32 %40, ptr %34, align 4, !tbaa !4
  br label %lean_inc.exit29

41:                                               ; preds = %37
  %.not.i39 = icmp eq i32 %.val.i38, 0
  br i1 %.not.i39, label %lean_inc.exit29, label %42

42:                                               ; preds = %41
  tail call void @lean_inc_ref_cold(ptr noundef nonnull %34) #3
  br label %lean_inc.exit29

lean_inc.exit29:                                  ; preds = %42, %41, %39, %lean_inc.exit30
  %43 = getelementptr inbounds nuw i8, ptr %0, i64 24
  %44 = load ptr, ptr %43, align 8, !tbaa !10
  %45 = ptrtoint ptr %44 to i64
  %46 = and i64 %45, 1
  %.not53 = icmp eq i64 %46, 0
  br i1 %.not53, label %47, label %lean_inc.exit28

47:                                               ; preds = %lean_inc.exit29
  %.val.i41 = load i32, ptr %44, align 4, !tbaa !4
  %48 = icmp sgt i32 %.val.i41, 0
  br i1 %48, label %49, label %51, !prof !9

49:                                               ; preds = %47
  %50 = add nuw i32 %.val.i41, 1
  store i32 %50, ptr %44, align 4, !tbaa !4
  br label %lean_inc.exit28

51:                                               ; preds = %47
  %.not.i42 = icmp eq i32 %.val.i41, 0
  br i1 %.not.i42, label %lean_inc.exit28, label %52

52:                                               ; preds = %51
  tail call void @lean_inc_ref_cold(ptr noundef nonnull %44) #3
  br label %lean_inc.exit28

lean_inc.exit28:                                  ; preds = %52, %51, %49, %lean_inc.exit29
  %53 = getelementptr inbounds nuw i8, ptr %0, i64 32
  %54 = load ptr, ptr %53, align 8, !tbaa !10
  %55 = ptrtoint ptr %54 to i64
  %56 = and i64 %55, 1
  %.not54 = icmp eq i64 %56, 0
  br i1 %.not54, label %57, label %lean_inc.exit27

57:                                               ; preds = %lean_inc.exit28
  %.val.i44 = load i32, ptr %54, align 4, !tbaa !4
  %58 = icmp sgt i32 %.val.i44, 0
  br i1 %58, label %59, label %61, !prof !9

59:                                               ; preds = %57
  %60 = add nuw i32 %.val.i44, 1
  store i32 %60, ptr %54, align 4, !tbaa !4
  br label %lean_inc.exit27

61:                                               ; preds = %57
  %.not.i45 = icmp eq i32 %.val.i44, 0
  br i1 %.not.i45, label %lean_inc.exit27, label %62

62:                                               ; preds = %61
  tail call void @lean_inc_ref_cold(ptr noundef nonnull %54) #3
  br label %lean_inc.exit27

lean_inc.exit27:                                  ; preds = %62, %61, %59, %lean_inc.exit28
  %63 = getelementptr inbounds nuw i8, ptr %0, i64 40
  %64 = load ptr, ptr %63, align 8, !tbaa !10
  %65 = ptrtoint ptr %64 to i64
  %66 = and i64 %65, 1
  %.not55 = icmp eq i64 %66, 0
  br i1 %.not55, label %67, label %lean_inc.exit

67:                                               ; preds = %lean_inc.exit27
  %.val.i47 = load i32, ptr %64, align 4, !tbaa !4
  %68 = icmp sgt i32 %.val.i47, 0
  br i1 %68, label %69, label %71, !prof !9

69:                                               ; preds = %67
  %70 = add nuw i32 %.val.i47, 1
  store i32 %70, ptr %64, align 4, !tbaa !4
  br label %lean_inc.exit

71:                                               ; preds = %67
  %.not.i48 = icmp eq i32 %.val.i47, 0
  br i1 %.not.i48, label %lean_inc.exit, label %72

72:                                               ; preds = %71
  tail call void @lean_inc_ref_cold(ptr noundef nonnull %64) #3
  br label %lean_inc.exit

lean_inc.exit:                                    ; preds = %72, %71, %69, %lean_inc.exit27
  br i1 %.not.i35, label %73, label %lean_dec.exit25

73:                                               ; preds = %lean_inc.exit
  %74 = load i32, ptr %0, align 4, !tbaa !4
  %75 = icmp sgt i32 %74, 1
  br i1 %75, label %76, label %78, !prof !9

76:                                               ; preds = %73
  %77 = add nsw i32 %74, -1
  store i32 %77, ptr %0, align 4, !tbaa !4
  br label %lean_dec.exit25

78:                                               ; preds = %73
  %.not.i31 = icmp eq i32 %74, 0
  br i1 %.not.i31, label %lean_dec.exit25, label %79

79:                                               ; preds = %78
  tail call void @lean_dec_ref_cold(ptr noundef nonnull %0) #3
  br label %lean_dec.exit25

lean_dec.exit25:                                  ; preds = %79, %78, %76, %lean_inc.exit
  %80 = tail call ptr @lean_apply_5(ptr noundef %1, ptr noundef %24, ptr noundef %34, ptr noundef %44, ptr noundef %54, ptr noundef %64) #3
  br label %92

81:                                               ; preds = %lean_obj_tag.exit
  %82 = ptrtoint ptr %1 to i64
  %83 = and i64 %82, 1
  %.not = icmp eq i64 %83, 0
  br i1 %.not, label %84, label %lean_dec.exit

84:                                               ; preds = %81
  %85 = load i32, ptr %1, align 4, !tbaa !4
  %86 = icmp sgt i32 %85, 1
  br i1 %86, label %87, label %89, !prof !9

87:                                               ; preds = %84
  %88 = add nsw i32 %85, -1
  store i32 %88, ptr %1, align 4, !tbaa !4
  br label %lean_dec.exit

89:                                               ; preds = %84
  %.not.i33 = icmp eq i32 %85, 0
  br i1 %.not.i33, label %lean_dec.exit, label %90

90:                                               ; preds = %89
  tail call void @lean_dec_ref_cold(ptr noundef nonnull %1) #3
  br label %lean_dec.exit

lean_dec.exit:                                    ; preds = %90, %89, %87, %81
  %91 = tail call ptr @lean_apply_2(ptr noundef %2, ptr noundef %0, ptr noundef nonnull inttoptr (i64 1 to ptr)) #3
  br label %92

92:                                               ; preds = %lean_dec.exit, %lean_dec.exit25
  %.0 = phi ptr [ %80, %lean_dec.exit25 ], [ %91, %lean_dec.exit ]
  ret ptr %.0
}